target datalayout = "e-m:e-p270:32:32-p271:32:32-p272:64:64-i64:64-i128:128-f80:128-n8:16:32:64-S128"
target triple = "x86_64-pc-linux-gnu"

%struct._generic_N_Vector = type { ptr, ptr, ptr }
%struct._N_VectorContent_Serial = type { i64, i32, ptr }

; Function Attrs: nounwind uwtable
define internal i32 @rhsQB(double noundef %0, ptr noundef %1, ptr noundef %2, ptr noundef %3, ptr noundef %4, ptr noundef %5, ptr noundef %6) #0 {
  %8 = alloca double, align 8
  %9 = alloca ptr, align 8
  %10 = alloca ptr, align 8
  %11 = alloca ptr, align 8
  %12 = alloca ptr, align 8
  %13 = alloca ptr, align 8
  %14 = alloca ptr, align 8
  %15 = alloca double, align 8
  %16 = alloca double, align 8
  %17 = alloca double, align 8
  %18 = alloca double, align 8
  %19 = alloca double, align 8
  %20 = alloca double, align 8
  store double %0, ptr %8, align 8, !tbaa !18
  store ptr %1, ptr %9, align 8, !tbaa !16
  store ptr %2, ptr %10, align 8, !tbaa !16
  store ptr %3, ptr %11, align 8, !tbaa !16
  store ptr %4, ptr %12, align 8, !tbaa !16
  store ptr %5, ptr %13, align 8, !tbaa !16
  store ptr %6, ptr %14, align 8, !tbaa !11
  call void @llvm.lifetime.start.p0(i64 8, ptr %15) #6
  call void @llvm.lifetime.start.p0(i64 8, ptr %16) #6
  call void @llvm.lifetime.start.p0(i64 8, ptr %17) #6
  call void @llvm.lifetime.start.p0(i64 8, ptr %18) #6
  call void @llvm.lifetime.start.p0(i64 8, ptr %19) #6
  call void @llvm.lifetime.start.p0(i64 8, ptr %20) #6
  %21 = load ptr, ptr %9, align 8, !tbaa !16
  %22 = getelementptr inbounds nuw %struct._generic_N_Vector, ptr %21, i32 0, i32 0
  %23 = load ptr, ptr %22, align 8, !tbaa !22
  %24 = getelementptr inbounds nuw %struct._N_VectorContent_Serial, ptr %23, i32 0, i32 2
  %25 = load ptr, ptr %24, align 8, !tbaa !25
  %26 = getelementptr inbounds double, ptr %25, i64 0
  %27 = load double, ptr %26, align 8, !tbaa !18
  store double %27, ptr %15, align 8, !tbaa !18
  %28 = load ptr, ptr %9, align 8, !tbaa !16
  %29 = getelementptr inbounds nuw %struct._generic_N_Vector, ptr %28, i32 0, i32 0
  %30 = load ptr, ptr %29, align 8, !tbaa !22
  %31 = getelementptr inbounds nuw %struct._N_VectorContent_Serial, ptr %30, i32 0, i32 2
  %32 = load ptr, ptr %31, align 8, !tbaa !25
  %33 = getelementptr inbounds double, ptr %32, i64 1
  %34 = load double, ptr %33, align 8, !tbaa !18
  store double %34, ptr %16, align 8, !tbaa !18
  %35 = load ptr, ptr %9, align 8, !tbaa !16
  %36 = getelementptr inbounds nuw %struct._generic_N_Vector, ptr %35, i32 0, i32 0
  %37 = load ptr, ptr %36, align 8, !tbaa !22
  %38 = getelementptr inbounds nuw %struct._N_VectorContent_Serial, ptr %37, i32 0, i32 2
  %39 = load ptr, ptr %38, align 8, !tbaa !25
  %40 = getelementptr inbounds double, ptr %39, i64 2
  %41 = load double, ptr %40, align 8, !tbaa !18
  store double %41, ptr %17, align 8, !tbaa !18
  %42 = load ptr, ptr %11, align 8, !tbaa !16
  %43 = getelementptr inbounds nuw %struct._generic_N_Vector, ptr %42, i32 0, i32 0
  %44 = load ptr, ptr %43, align 8, !tbaa !22
  %45 = getelementptr inbounds nuw %struct._N_VectorContent_Serial, ptr %44, i32 0, i32 2
  %46 = load ptr, ptr %45, align 8, !tbaa !25
  %47 = getelementptr inbounds double, ptr %46, i64 0
  %48 = load double, ptr %47, align 8, !tbaa !18
  store double %48, ptr %18, align 8, !tbaa !18
  %49 = load ptr, ptr %11, align 8, !tbaa !16
  %50 = getelementptr inbounds nuw %struct._generic_N_Vector, ptr %49, i32 0, i32 0
  %51 = load ptr, ptr %50, align 8, !tbaa !22
  %52 = getelementptr inbounds nuw %struct._N_VectorContent_Serial, ptr %51, i32 0, i32 2
  %53 = load ptr, ptr %52, align 8, !tbaa !25
  %54 = getelementptr inbounds double, ptr %53, i64 1
  %55 = load double, ptr %54, align 8, !tbaa !18
  store double %55, ptr %19, align 8, !tbaa !18
  %56 = load double, ptr %19, align 8, !tbaa !18
  %57 = load double, ptr %18, align 8, !tbaa !18
  %58 = fsub double %56, %57
  store double %58, ptr %20, align 8, !tbaa !18
  %59 = load double, ptr %15, align 8, !tbaa !18
  %60 = load double, ptr %20, align 8, !tbaa !18
  %61 = fmul double %59, %60
  %62 = load ptr, ptr %13, align 8, !tbaa !16
  %63 = getelementptr inbounds nuw %struct._generic_N_Vector, ptr %62, i32 0, i32 0
  %64 = load ptr, ptr %63, align 8, !tbaa !22
  %65 = getelementptr inbounds nuw %struct._N_VectorContent_Serial, ptr %64, i32 0, i32 2
  %66 = load ptr, ptr %65, align 8, !tbaa !25
  %67 = getelementptr inbounds double, ptr %66, i64 0
  store double %61, ptr %67, align 8, !tbaa !18
  %68 = load double, ptr %17, align 8, !tbaa !18
  %69 = fneg double %68
  %70 = load double, ptr %16, align 8, !tbaa !18
  %71 = fmul double %69, %70
  %72 = load double, ptr %20, align 8, !tbaa !18
  %73 = fmul double %71, %72
  %74 = load ptr, ptr %13, align 8, !tbaa !16
  %75 = getelementptr inbounds nuw %struct._generic_N_Vector, ptr %74, i32 0, i32 0
  %76 = load ptr, ptr %75, align 8, !tbaa !22
  %77 = getelementptr inbounds nuw %struct._N_VectorContent_Serial, ptr %76, i32 0, i32 2
  %78 = load ptr, ptr %77, align 8, !tbaa !25
  %79 = getelementptr inbounds double, ptr %78, i64 1
  store double %73, ptr %79, align 8, !tbaa !18
  %80 = load double, ptr %16, align 8, !tbaa !18
  %81 = fneg double %80
  %82 = load double, ptr %16, align 8, !tbaa !18
  %83 = fmul double %81, %82
  %84 = load double, ptr %19, align 8, !tbaa !18
  %85 = fmul double %83, %84
  %86 = load ptr, ptr %13, align 8, !tbaa !16
  %87 = getelementptr inbounds nuw %struct._generic_N_Vector, ptr %86, i32 0, i32 0
  %88 = load ptr, ptr %87, align 8, !tbaa !22
  %89 = getelementptr inbounds nuw %struct._N_VectorContent_Serial, ptr %88, i32 0, i32 2
  %90 = load ptr, ptr %89, align 8, !tbaa !25
  %91 = getelementptr inbounds double, ptr %90, i64 2
  store double %85, ptr %91, align 8, !tbaa !18
  call void @llvm.lifetime.end.p0(i64 8, ptr %20) #6
  call void @llvm.lifetime.end.p0(i64 8, ptr %19) #6
  call void @llvm.lifetime.end.p0(i64 8, ptr %18) #6
  call void @llvm.lifetime.end.p0(i64 8, ptr %17) #6
  call void @llvm.lifetime.end.p0(i64 8, ptr %16) #6
  call void @llvm.lifetime.end.p0(i64 8, ptr %15) #6
  ret i32 0
}