; Function Attrs: mustprogress nofree norecurse nosync nounwind willreturn memory(readwrite, inaccessiblemem: none) uwtable
define internal noundef i32 @rhsQB(double %0, ptr noundef readonly captures(none) %1, ptr readnone captures(none) %2, ptr noundef readonly captures(none) %3, ptr readnone captures(none) %4, ptr noundef readonly captures(none) %5, ptr readnone captures(none) %6) #6 {
  %8 = load ptr, ptr %1, align 8, !tbaa !13
  %9 = getelementptr inbounds nuw i8, ptr %8, i64 16
  %10 = load ptr, ptr %9, align 8, !tbaa !16
  %11 = load double, ptr %10, align 8, !tbaa !9
  %12 = getelementptr inbounds nuw i8, ptr %10, i64 8
  %13 = load double, ptr %12, align 8, !tbaa !9
  %14 = getelementptr inbounds nuw i8, ptr %10, i64 16
  %15 = load double, ptr %14, align 8, !tbaa !9
  %16 = load ptr, ptr %3, align 8, !tbaa !13
  %17 = getelementptr inbounds nuw i8, ptr %16, i64 16
  %18 = load ptr, ptr %17, align 8, !tbaa !16
  %19 = load double, ptr %18, align 8, !tbaa !9
  %20 = getelementptr inbounds nuw i8, ptr %18, i64 8
  %21 = load double, ptr %20, align 8, !tbaa !9
  %22 = fsub double %21, %19
  %23 = fmul double %11, %22
  %24 = load ptr, ptr %5, align 8, !tbaa !13
  %25 = getelementptr inbounds nuw i8, ptr %24, i64 16
  %26 = load ptr, ptr %25, align 8, !tbaa !16
  store double %23, ptr %26, align 8, !tbaa !9
  %27 = fneg double %15
  %28 = fmul double %13, %27
  %29 = fmul double %28, %22
  %30 = getelementptr inbounds nuw i8, ptr %26, i64 8
  store double %29, ptr %30, align 8, !tbaa !9
  %31 = fneg double %13
  %32 = fmul double %13, %31
  %33 = fmul double %32, %21
  %34 = getelementptr inbounds nuw i8, ptr %26, i64 16
  store double %33, ptr %34, align 8, !tbaa !9
  ret i32 0
}